; Function Attrs: mustprogress uwtable
define void @grpc_slice_from_copied_buffer(ptr dead_on_unwind noalias writable sret(%struct.grpc_slice) align 8 captures(none) initializes((0, 9)) %0, ptr noundef readonly captures(none) %1, i64 noundef %2) local_unnamed_addr #3 {
  %4 = icmp eq i64 %2, 0
  br i1 %4, label %5, label %6

5:                                                ; preds = %3
  tail call void @llvm.memset.p0.i64(ptr noundef nonnull align 8 dereferenceable(32) %0, i8 0, i64 32, i1 false), !alias.scope !43
  br label %21

6:                                                ; preds = %3
  tail call void @llvm.experimental.noalias.scope.decl(metadata !48)
  %7 = icmp ult i64 %2, 24
  br i1 %7, label %8, label %11

8:                                                ; preds = %6
  %9 = trunc nuw nsw i64 %2 to i8
  %10 = getelementptr inbounds nuw i8, ptr %0, i64 8
  store i8 %9, ptr %10, align 8, !tbaa !9, !alias.scope !48
  %.phi.trans.insert = getelementptr inbounds nuw i8, ptr %0, i64 16
  %.pre = load ptr, ptr %.phi.trans.insert, align 8
  br label %grpc_slice_malloc.exit

11:                                               ; preds = %6
  tail call void @llvm.experimental.noalias.scope.decl(metadata !51)
  %12 = add i64 %2, 16
  %13 = tail call noalias noundef nonnull ptr @_Znam(i64 noundef %12) #28, !noalias !54
  store i64 1, ptr %13, align 8, !tbaa !20, !noalias !54
  %14 = getelementptr inbounds nuw i8, ptr %13, i64 8
  store ptr @"_ZZ23grpc_slice_malloc_largeEN3$_08__invokeEP19grpc_slice_refcount", ptr %14, align 8, !tbaa !23, !noalias !54
  %15 = getelementptr inbounds nuw i8, ptr %13, i64 16
  %16 = getelementptr inbounds nuw i8, ptr %0, i64 8
  %17 = getelementptr inbounds nuw i8, ptr %0, i64 16
  store ptr %15, ptr %17, align 8, !tbaa !9, !alias.scope !54
  store i64 %2, ptr %16, align 8, !tbaa !9, !alias.scope !54
  br label %grpc_slice_malloc.exit

grpc_slice_malloc.exit:                           ; preds = %8, %11
  %18 = phi ptr [ %.pre, %8 ], [ %15, %11 ]
  %.sink.i = phi ptr [ null, %8 ], [ %13, %11 ]
  store ptr %.sink.i, ptr %0, align 8, !tbaa !3, !alias.scope !48
  %.not = icmp eq ptr %.sink.i, null
  %19 = getelementptr inbounds nuw i8, ptr %0, i64 9
  %20 = select i1 %.not, ptr %19, ptr %18
  tail call void @llvm.memcpy.p0.p0.i64(ptr align 1 %20, ptr align 1 %1, i64 %2, i1 false)
  br label %21

21:                                               ; preds = %grpc_slice_malloc.exit, %5
  ret void
}